target datalayout = "e-m:e-p270:32:32-p271:32:32-p272:64:64-i64:64-i128:128-f80:128-n8:16:32:64-S128"
target triple = "x86_64-pc-linux-gnu"

%struct.mspack_system = type { ptr, ptr, ptr, ptr, ptr, ptr, ptr, ptr, ptr, ptr, ptr }
%struct.msszdd_decompressor_p = type { %struct.msszdd_decompressor, ptr, i32 }
%struct.msszdd_decompressor = type { ptr, ptr, ptr, ptr, ptr }

; Function Attrs: nounwind uwtable
define void @mspack_destroy_szdd_decompressor(ptr noundef %0) #0 {
  %2 = alloca ptr, align 8
  %3 = alloca ptr, align 8
  %4 = alloca ptr, align 8
  store ptr %0, ptr %2, align 8, !tbaa !22
  call void @llvm.lifetime.start.p0(i64 8, ptr %3) #4
  %5 = load ptr, ptr %2, align 8, !tbaa !22
  store ptr %5, ptr %3, align 8, !tbaa !8
  %6 = load ptr, ptr %3, align 8, !tbaa !8
  %7 = icmp ne ptr %6, null
  br i1 %7, label %8, label %16

8:                                                ; preds = %1
  call void @llvm.lifetime.start.p0(i64 8, ptr %4) #4
  %9 = load ptr, ptr %3, align 8, !tbaa !8
  %10 = getelementptr inbounds nuw %struct.msszdd_decompressor_p, ptr %9, i32 0, i32 1
  %11 = load ptr, ptr %10, align 8, !tbaa !20
  store ptr %11, ptr %4, align 8, !tbaa !3
  %12 = load ptr, ptr %4, align 8, !tbaa !3
  %13 = getelementptr inbounds nuw %struct.mspack_system, ptr %12, i32 0, i32 8
  %14 = load ptr, ptr %13, align 8, !tbaa !36
  %15 = load ptr, ptr %3, align 8, !tbaa !8
  call void %14(ptr noundef %15)
  call void @llvm.lifetime.end.p0(i64 8, ptr %4) #4
  br label %16

16:                                               ; preds = %8, %1
  call void @llvm.lifetime.end.p0(i64 8, ptr %3) #4
  ret void
}