; Function Attrs: nounwind uwtable
define void @mspack_destroy_szdd_decompressor(ptr noundef %0) local_unnamed_addr #0 {
  %.not = icmp eq ptr %0, null
  br i1 %.not, label %7, label %2

2:                                                ; preds = %1
  %3 = getelementptr inbounds nuw i8, ptr %0, i64 40
  %4 = load ptr, ptr %3, align 8, !tbaa !17
  %5 = getelementptr inbounds nuw i8, ptr %4, i64 64
  %6 = load ptr, ptr %5, align 8, !tbaa !31
  tail call void %6(ptr noundef nonnull %0) #5
  br label %7

7:                                                ; preds = %2, %1
  ret void
}